target datalayout = "e-m:e-p270:32:32-p271:32:32-p272:64:64-i64:64-i128:128-f80:128-n8:16:32:64-S128"
target triple = "x86_64-pc-linux-gnu"

%struct.SDL_Mouse = type { ptr, ptr, ptr, ptr, ptr, ptr, ptr, ptr, ptr, ptr, ptr, ptr, ptr, ptr, i8, float, float, ptr, float, float, float, float, float, float, float, float, double, double, i8, i8, i8, i8, i8, i8, i8, i8, i64, i8, float, i8, float, i8, i32, i32, i8, i8, i8, i8, i8, i8, i8, i8, i8, ptr, i32, ptr, ptr, ptr, ptr, i8, ptr }

@sys_cursors = internal global [10 x ptr] zeroinitializer, align 16

; Function Attrs: nounwind uwtable
define internal ptr @X11_CreateDefaultCursor() #0 {
  %1 = alloca i32, align 4
  call void @llvm.lifetime.start.p0(i64 4, ptr %1) #6
  %2 = call i32 @SDL_GetDefaultSystemCursor()
  store i32 %2, ptr %1, align 4
  %3 = load i32, ptr %1, align 4
  %4 = call ptr @X11_CreateSystemCursor(i32 noundef %3)
  call void @llvm.lifetime.end.p0(i64 4, ptr %1) #6
  ret ptr %4
}

; Function Attrs: nounwind uwtable
define hidden void @X11_InitMouse(ptr noundef %0) #0 {
  %2 = alloca ptr, align 8
  %3 = alloca ptr, align 8
  %4 = alloca i32, align 4
  store ptr %0, ptr %2, align 8
  call void @llvm.lifetime.start.p0(i64 8, ptr %3) #6
  %5 = call ptr @SDL_GetMouse()
  store ptr %5, ptr %3, align 8
  %6 = load ptr, ptr %3, align 8
  %7 = getelementptr inbounds nuw %struct.SDL_Mouse, ptr %6, i32 0, i32 0
  store ptr @X11_CreateCursor, ptr %7, align 8
  %8 = load ptr, ptr %3, align 8
  %9 = getelementptr inbounds nuw %struct.SDL_Mouse, ptr %8, i32 0, i32 1
  store ptr @X11_CreateSystemCursor, ptr %9, align 8
  %10 = load ptr, ptr %3, align 8
  %11 = getelementptr inbounds nuw %struct.SDL_Mouse, ptr %10, i32 0, i32 2
  store ptr @X11_ShowCursor, ptr %11, align 8
  %12 = load ptr, ptr %3, align 8
  %13 = getelementptr inbounds nuw %struct.SDL_Mouse, ptr %12, i32 0, i32 4
  store ptr @X11_FreeCursor, ptr %13, align 8
  %14 = load ptr, ptr %3, align 8
  %15 = getelementptr inbounds nuw %struct.SDL_Mouse, ptr %14, i32 0, i32 5
  store ptr @X11_WarpMouse, ptr %15, align 8
  %16 = load ptr, ptr %3, align 8
  %17 = getelementptr inbounds nuw %struct.SDL_Mouse, ptr %16, i32 0, i32 6
  store ptr @X11_WarpMouseGlobal, ptr %17, align 8
  %18 = load ptr, ptr %3, align 8
  %19 = getelementptr inbounds nuw %struct.SDL_Mouse, ptr %18, i32 0, i32 7
  store ptr @X11_SetRelativeMouseMode, ptr %19, align 8
  %20 = load ptr, ptr %3, align 8
  %21 = getelementptr inbounds nuw %struct.SDL_Mouse, ptr %20, i32 0, i32 8
  store ptr @X11_CaptureMouse, ptr %21, align 8
  %22 = load ptr, ptr %3, align 8
  %23 = getelementptr inbounds nuw %struct.SDL_Mouse, ptr %22, i32 0, i32 9
  store ptr @X11_GetGlobalMouseState, ptr %23, align 8
  call void @llvm.lifetime.start.p0(i64 4, ptr %4) #6
  store i32 0, ptr %4, align 4
  br label %24

24:                                               ; preds = %79, %1
  %25 = load i32, ptr %4, align 4
  %26 = icmp ule i32 %25, 9
  br i1 %26, label %27, label %82

27:                                               ; preds = %24
  %28 = load i32, ptr %4, align 4
  switch i32 %28, label %79 [
    i32 0, label %29
    i32 1, label %34
    i32 2, label %39
    i32 3, label %44
    i32 4, label %49
    i32 5, label %54
    i32 6, label %59
    i32 7, label %64
    i32 8, label %69
    i32 9, label %74
  ]

29:                                               ; preds = %27
  %30 = call ptr @X11_CreateSystemCursor(i32 noundef 0)
  %31 = load i32, ptr %4, align 4
  %32 = zext i32 %31 to i64
  %33 = getelementptr inbounds nuw [10 x ptr], ptr @sys_cursors, i64 0, i64 %32
  store ptr %30, ptr %33, align 8
  br label %79

34:                                               ; preds = %27
  %35 = call ptr @X11_CreateSystemCursor(i32 noundef 0)
  %36 = load i32, ptr %4, align 4
  %37 = zext i32 %36 to i64
  %38 = getelementptr inbounds nuw [10 x ptr], ptr @sys_cursors, i64 0, i64 %37
  store ptr %35, ptr %38, align 8
  br label %79

39:                                               ; preds = %27
  %40 = call ptr @X11_CreateSystemCursor(i32 noundef 12)
  %41 = load i32, ptr %4, align 4
  %42 = zext i32 %41 to i64
  %43 = getelementptr inbounds nuw [10 x ptr], ptr @sys_cursors, i64 0, i64 %42
  store ptr %40, ptr %43, align 8
  br label %79

44:                                               ; preds = %27
  %45 = call ptr @X11_CreateSystemCursor(i32 noundef 13)
  %46 = load i32, ptr %4, align 4
  %47 = zext i32 %46 to i64
  %48 = getelementptr inbounds nuw [10 x ptr], ptr @sys_cursors, i64 0, i64 %47
  store ptr %45, ptr %48, align 8
  br label %79

49:                                               ; preds = %27
  %50 = call ptr @X11_CreateSystemCursor(i32 noundef 14)
  %51 = load i32, ptr %4, align 4
  %52 = zext i32 %51 to i64
  %53 = getelementptr inbounds nuw [10 x ptr], ptr @sys_cursors, i64 0, i64 %52
  store ptr %50, ptr %53, align 8
  br label %79

54:                                               ; preds = %27
  %55 = call ptr @X11_CreateSystemCursor(i32 noundef 15)
  %56 = load i32, ptr %4, align 4
  %57 = zext i32 %56 to i64
  %58 = getelementptr inbounds nuw [10 x ptr], ptr @sys_cursors, i64 0, i64 %57
  store ptr %55, ptr %58, align 8
  br label %79

59:                                               ; preds = %27
  %60 = call ptr @X11_CreateSystemCursor(i32 noundef 16)
  %61 = load i32, ptr %4, align 4
  %62 = zext i32 %61 to i64
  %63 = getelementptr inbounds nuw [10 x ptr], ptr @sys_cursors, i64 0, i64 %62
  store ptr %60, ptr %63, align 8
  br label %79

64:                                               ; preds = %27
  %65 = call ptr @X11_CreateSystemCursor(i32 noundef 17)
  %66 = load i32, ptr %4, align 4
  %67 = zext i32 %66 to i64
  %68 = getelementptr inbounds nuw [10 x ptr], ptr @sys_cursors, i64 0, i64 %67
  store ptr %65, ptr %68, align 8
  br label %79

69:                                               ; preds = %27
  %70 = call ptr @X11_CreateSystemCursor(i32 noundef 18)
  %71 = load i32, ptr %4, align 4
  %72 = zext i32 %71 to i64
  %73 = getelementptr inbounds nuw [10 x ptr], ptr @sys_cursors, i64 0, i64 %72
  store ptr %70, ptr %73, align 8
  br label %79

74:                                               ; preds = %27
  %75 = call ptr @X11_CreateSystemCursor(i32 noundef 19)
  %76 = load i32, ptr %4, align 4
  %77 = zext i32 %76 to i64
  %78 = getelementptr inbounds nuw [10 x ptr], ptr @sys_cursors, i64 0, i64 %77
  store ptr %75, ptr %78, align 8
  br label %79

79:                                               ; preds = %27, %74, %69, %64, %59, %54, %49, %44, %39, %34, %29
  %80 = load i32, ptr %4, align 4
  %81 = add i32 %80, 1
  store i32 %81, ptr %4, align 4
  br label %24, !llvm.loop !3

82:                                               ; preds = %24
  %83 = call ptr @X11_CreateDefaultCursor()
  call void @SDL_SetDefaultCursor(ptr noundef %83)
  call void @llvm.lifetime.end.p0(i64 4, ptr %4) #6
  call void @llvm.lifetime.end.p0(i64 8, ptr %3) #6
  ret void
}