; Function Attrs: nounwind uwtable
define hidden void @X11_InitMouse(ptr noundef readnone captures(none) %0) local_unnamed_addr #0 {
  %2 = tail call ptr @SDL_GetMouse() #5
  store ptr @X11_CreateCursor, ptr %2, align 8
  %3 = getelementptr inbounds nuw i8, ptr %2, i64 8
  store ptr @X11_CreateSystemCursor, ptr %3, align 8
  %4 = getelementptr inbounds nuw i8, ptr %2, i64 16
  store ptr @X11_ShowCursor, ptr %4, align 8
  %5 = getelementptr inbounds nuw i8, ptr %2, i64 32
  store ptr @X11_FreeCursor, ptr %5, align 8
  %6 = getelementptr inbounds nuw i8, ptr %2, i64 40
  store ptr @X11_WarpMouse, ptr %6, align 8
  %7 = getelementptr inbounds nuw i8, ptr %2, i64 48
  store ptr @X11_WarpMouseGlobal, ptr %7, align 8
  %8 = getelementptr inbounds nuw i8, ptr %2, i64 56
  store ptr @X11_SetRelativeMouseMode, ptr %8, align 8
  %9 = getelementptr inbounds nuw i8, ptr %2, i64 64
  store ptr @X11_CaptureMouse, ptr %9, align 8
  %10 = getelementptr inbounds nuw i8, ptr %2, i64 72
  store ptr @X11_GetGlobalMouseState, ptr %10, align 8
  br label %switch.lookup

switch.lookup:                                    ; preds = %1, %switch.lookup
  %indvars.iv = phi i64 [ 0, %1 ], [ %indvars.iv.next, %switch.lookup ]
  %11 = getelementptr inbounds nuw [10 x ptr], ptr @sys_cursors, i64 0, i64 %indvars.iv
  %sext = shl i64 %indvars.iv, 32
  %12 = ashr exact i64 %sext, 32
  %switch.gep = getelementptr inbounds [10 x i32], ptr @switch.table.X11_InitMouse, i64 0, i64 %12
  %switch.load = load i32, ptr %switch.gep, align 4
  %13 = tail call ptr @X11_CreateSystemCursor(i32 noundef %switch.load)
  store ptr %13, ptr %11, align 8
  %indvars.iv.next = add nuw nsw i64 %indvars.iv, 1
  %exitcond.not = icmp eq i64 %indvars.iv.next, 10
  br i1 %exitcond.not, label %14, label %switch.lookup, !llvm.loop !3

14:                                               ; preds = %switch.lookup
  %15 = tail call i32 @SDL_GetDefaultSystemCursor() #5
  %16 = tail call noundef ptr @X11_CreateSystemCursor(i32 noundef %15)
  tail call void @SDL_SetDefaultCursor(ptr noundef %16) #5
  ret void
}